target datalayout = "e-m:e-p270:32:32-p271:32:32-p272:64:64-i64:64-i128:128-f80:128-n8:16:32:64-S128"
target triple = "x86_64-pc-linux-gnu"

%struct.ARKodeMRIStepMemRec = type { ptr, ptr, i32, i32, i32, i32, i32, ptr, ptr, i32, i32, i32, ptr, i32, i32, i32, i32, i32, ptr, ptr, ptr, ptr, ptr, ptr, ptr, i32, ptr, i32, ptr, double, double, double, double, i32, double, double, double, double, double, double, i32, i64, i32, i32, i32, ptr, ptr, ptr, ptr, ptr, ptr, ptr, ptr, ptr, double, double, double, i64, i64, i64, i64, i64, i64, i32, i32, i32, double, double, ptr, i32, ptr, ptr }

@__func__.mriStep_SetNonlinear = private unnamed_addr constant [21 x i8] c"mriStep_SetNonlinear\00", align 1

; Function Attrs: nounwind uwtable
define i32 @mriStep_SetNonlinear(ptr noundef %0) #0 {
  %2 = alloca i32, align 4
  %3 = alloca ptr, align 8
  %4 = alloca ptr, align 8
  %5 = alloca i32, align 4
  %6 = alloca i32, align 4
  store ptr %0, ptr %3, align 8, !tbaa !11
  call void @llvm.lifetime.start.p0(i64 8, ptr %4) #4
  call void @llvm.lifetime.start.p0(i64 4, ptr %5) #4
  %7 = load ptr, ptr %3, align 8, !tbaa !11
  %8 = call i32 @mriStep_AccessStepMem(ptr noundef %7, ptr noundef @__func__.mriStep_SetNonlinear, ptr noundef %4)
  store i32 %8, ptr %5, align 4, !tbaa !9
  %9 = load i32, ptr %5, align 4, !tbaa !9
  %10 = icmp ne i32 %9, 0
  br i1 %10, label %11, label %13

11:                                               ; preds = %1
  %12 = load i32, ptr %5, align 4, !tbaa !9
  store i32 %12, ptr %2, align 4
  store i32 1, ptr %6, align 4
  br label %20

13:                                               ; preds = %1
  %14 = load ptr, ptr %4, align 8, !tbaa !13
  %15 = getelementptr inbounds nuw %struct.ARKodeMRIStepMemRec, ptr %14, i32 0, i32 2
  store i32 0, ptr %15, align 8, !tbaa !61
  %16 = load ptr, ptr %4, align 8, !tbaa !13
  %17 = getelementptr inbounds nuw %struct.ARKodeMRIStepMemRec, ptr %16, i32 0, i32 3
  store i32 1, ptr %17, align 4, !tbaa !62
  %18 = load ptr, ptr %4, align 8, !tbaa !13
  %19 = getelementptr inbounds nuw %struct.ARKodeMRIStepMemRec, ptr %18, i32 0, i32 32
  store double 2.000000e-01, ptr %19, align 8, !tbaa !68
  store i32 0, ptr %2, align 4
  store i32 1, ptr %6, align 4
  br label %20

20:                                               ; preds = %13, %11
  call void @llvm.lifetime.end.p0(i64 4, ptr %5) #4
  call void @llvm.lifetime.end.p0(i64 8, ptr %4) #4
  %21 = load i32, ptr %2, align 4
  ret i32 %21
}