; Function Attrs: nounwind uwtable
define i32 @mriStep_SetNonlinear(ptr noundef %0) local_unnamed_addr #0 {
  %2 = alloca ptr, align 8
  call void @llvm.lifetime.start.p0(i64 8, ptr nonnull %2) #5
  %3 = call i32 @mriStep_AccessStepMem(ptr noundef %0, ptr noundef nonnull @__func__.mriStep_SetNonlinear, ptr noundef nonnull %2) #5
  %.not = icmp eq i32 %3, 0
  br i1 %.not, label %4, label %9

4:                                                ; preds = %1
  %5 = load ptr, ptr %2, align 8, !tbaa !8
  %6 = getelementptr inbounds nuw i8, ptr %5, i64 16
  store i32 0, ptr %6, align 8, !tbaa !53
  %7 = getelementptr inbounds nuw i8, ptr %5, i64 20
  store i32 1, ptr %7, align 4, !tbaa !54
  %8 = getelementptr inbounds nuw i8, ptr %5, i64 216
  store double 2.000000e-01, ptr %8, align 8, !tbaa !60
  br label %9

9:                                                ; preds = %1, %4
  call void @llvm.lifetime.end.p0(i64 8, ptr nonnull %2) #5
  ret i32 %3
}